target datalayout = "e-m:e-p270:32:32-p271:32:32-p272:64:64-i64:64-i128:128-f80:128-n8:16:32:64-S128"
target triple = "x86_64-unknown-linux-gnu"

module asm ".section\09\22.initcall6.init\22, \22a\22\09\09"
module asm "__initcall__kmod_selinux__462_121_selnl_init6:\09\09\09"
module asm ".long\09selnl_init - .\09"
module asm ".previous\09\09\09\09\09"

%struct.net = type { %struct.refcount_struct, %struct.spinlock, %struct.atomic_t, i32, i32, %struct.spinlock, %struct.atomic_t, %struct.list_head, %struct.list_head, %struct.llist_node, ptr, ptr, ptr, %struct.idr, %struct.ns_common, %struct.ref_tracker_dir, %struct.ref_tracker_dir, %struct.list_head, ptr, ptr, %struct.ctl_table_set, ptr, ptr, ptr, ptr, ptr, %struct.xarray, %struct.raw_notifier_head, i32, ptr, %struct.list_head, %struct.netns_core, %struct.netns_mib, %struct.netns_packet, %struct.netns_unix, %struct.netns_nexthop, [48 x i8], %struct.netns_ipv4, %struct.netns_ipv6, %struct.netns_nf, %struct.netns_ct, ptr, %struct.netns_bpf, [16 x i8], %struct.netns_xfrm, i64, ptr, [48 x i8] }
%struct.refcount_struct = type { %struct.atomic_t }
%struct.spinlock = type { %union.anon.22 }
%union.anon.22 = type { %struct.raw_spinlock }
%struct.raw_spinlock = type { %struct.qspinlock }
%struct.qspinlock = type { %union.anon.23 }
%union.anon.23 = type { %struct.atomic_t }
%struct.atomic_t = type { i32 }
%struct.llist_node = type { ptr }
%struct.idr = type { %struct.xarray, i32, i32 }
%struct.ns_common = type { %struct.atomic64_t, ptr, i32, %struct.refcount_struct }
%struct.atomic64_t = type { i64 }
%struct.ref_tracker_dir = type {}
%struct.ctl_table_set = type { ptr, %struct.ctl_dir }
%struct.ctl_dir = type { %struct.ctl_table_header, %struct.rb_root }
%struct.ctl_table_header = type { %union.anon.26, ptr, ptr, ptr, ptr, ptr, ptr, %struct.hlist_head }
%union.anon.26 = type { %struct.anon.27 }
%struct.anon.27 = type { ptr, i32, i32, i32, i32 }
%struct.hlist_head = type { ptr }
%struct.rb_root = type { ptr }
%struct.xarray = type { %struct.spinlock, i32, ptr }
%struct.raw_notifier_head = type { ptr }
%struct.list_head = type { ptr, ptr }
%struct.netns_core = type { ptr, i32, i32, i8, ptr, ptr }
%struct.netns_mib = type { ptr, ptr, ptr, ptr, ptr, ptr, ptr, ptr, ptr, ptr, ptr, ptr, ptr }
%struct.netns_packet = type { %struct.mutex, %struct.hlist_head }
%struct.mutex = type { %struct.atomic64_t, %struct.raw_spinlock, %struct.optimistic_spin_queue, %struct.list_head }
%struct.optimistic_spin_queue = type { %struct.atomic_t }
%struct.netns_unix = type { %struct.unix_table, i32, ptr }
%struct.unix_table = type { ptr, ptr }
%struct.netns_nexthop = type { %struct.rb_root, ptr, i32, i32, %struct.blocking_notifier_head }
%struct.blocking_notifier_head = type { %struct.rw_semaphore, ptr }
%struct.rw_semaphore = type { %struct.atomic64_t, %struct.atomic64_t, %struct.optimistic_spin_queue, %struct.raw_spinlock, %struct.list_head }
%struct.netns_ipv4 = type { [0 x i8], i8, i8, i8, i8, i32, i32, i32, i32, [3 x i32], i8, [0 x i8], [0 x i8], i8, [0 x i8], [0 x i8], i8, i8, i32, [3 x i32], [0 x i8], [12 x i8], %struct.inet_timewait_death_row, ptr, ptr, ptr, ptr, ptr, ptr, ptr, ptr, ptr, %struct.mutex, ptr, ptr, ptr, i32, i8, i8, i8, i8, ptr, ptr, ptr, ptr, ptr, i8, i8, i8, i8, i8, i32, i32, i32, i32, i32, %struct.local_ports, i8, i8, i8, i8, i8, i8, i8, i8, i8, i8, i8, i8, i8, i32, i32, i32, i32, i32, i32, i8, i8, i8, i8, i8, i8, i8, i8, i8, i8, i8, i8, i32, i8, i8, i8, i8, i8, i8, i8, i8, i8, i8, i8, i32, i32, i8, i8, i8, i8, i8, i8, i32, i8, i8, i32, i32, i32, i32, i64, i64, i32, i32, ptr, ptr, i32, %struct.atomic_t, i64, i32, i32, i8, i8, i8, i8, i32, i32, i32, i8, i8, i8, i32, i32, i32, %struct.ping_group_range, %struct.atomic_t, i32, ptr, i32, ptr, i32, i8, i8, ptr, i32, ptr, i32, %struct.atomic_t, %struct.siphash_key_t, [56 x i8] }
%struct.inet_timewait_death_row = type { %struct.refcount_struct, [60 x i8], ptr, i32, [52 x i8] }
%struct.local_ports = type { i32, i8 }
%struct.ping_group_range = type { %struct.seqlock_t, [2 x %struct.kgid_t] }
%struct.seqlock_t = type { %struct.seqcount_spinlock, %struct.spinlock }
%struct.seqcount_spinlock = type { %struct.seqcount }
%struct.seqcount = type { i32 }
%struct.kgid_t = type { i32 }
%struct.siphash_key_t = type { [2 x i64] }
%struct.netns_ipv6 = type { %struct.dst_ops, %struct.netns_sysctl_ipv6, ptr, ptr, ptr, ptr, ptr, ptr, ptr, %struct.timer_list, ptr, ptr, %struct.list_head, %struct.rwlock_t, %struct.spinlock, %struct.atomic_t, i64, i8, ptr, ptr, ptr, ptr, ptr, %struct.spinlock, %struct.delayed_work, %struct.atomic_t, %struct.atomic_t, ptr, ptr, ptr, i32, %struct.anon.30, ptr, [32 x i8] }
%struct.dst_ops = type { i16, i32, ptr, ptr, ptr, ptr, ptr, ptr, ptr, ptr, ptr, ptr, ptr, ptr, ptr, ptr, ptr, %struct.percpu_counter, [24 x i8] }
%struct.percpu_counter = type { %struct.raw_spinlock, i64, %struct.list_head, ptr }
%struct.netns_sysctl_ipv6 = type { ptr, ptr, ptr, ptr, ptr, i32, i32, i32, i32, i32, i32, i32, i32, i32, i8, i8, i8, i8, i32, i8, i8, i8, [4 x i64], ptr, i8, i8, i8, i8, i32, i32, i32, i32, i32, i32, i32, i32, i32, i64, i8, i8, i8 }
%struct.timer_list = type { %struct.hlist_node, i64, ptr, i32 }
%struct.hlist_node = type { ptr, ptr }
%struct.rwlock_t = type { %struct.qrwlock }
%struct.qrwlock = type { %union.anon.28, %struct.qspinlock }
%union.anon.28 = type { %struct.atomic_t }
%struct.delayed_work = type { %struct.work_struct, %struct.timer_list, ptr, i32 }
%struct.work_struct = type { %struct.atomic64_t, %struct.list_head, ptr }
%struct.anon.30 = type { %struct.hlist_head, %struct.spinlock, i32 }
%struct.netns_nf = type { ptr, [11 x ptr], ptr, [5 x ptr], [5 x ptr], i32, i32 }
%struct.netns_ct = type { i8, i8, i8, i8, i8, ptr, ptr, %struct.nf_ip_net }
%struct.nf_ip_net = type { %struct.nf_generic_net, %struct.nf_tcp_net, %struct.nf_udp_net, %struct.nf_icmp_net, %struct.nf_icmp_net }
%struct.nf_generic_net = type { i32 }
%struct.nf_tcp_net = type { [14 x i32], i8, i8, i8, i8 }
%struct.nf_udp_net = type { [2 x i32] }
%struct.nf_icmp_net = type { i32 }
%struct.netns_bpf = type { [2 x ptr], [2 x ptr], [2 x %struct.list_head] }
%struct.netns_xfrm = type { %struct.list_head, ptr, ptr, ptr, ptr, i32, i32, %struct.work_struct, %struct.list_head, ptr, i32, i32, [3 x %struct.hlist_head], [3 x %struct.xfrm_policy_hash], [6 x i32], %struct.work_struct, %struct.xfrm_policy_hthresh, %struct.list_head, ptr, ptr, i32, i32, i32, i32, [3 x i8], ptr, [24 x i8], %struct.dst_ops, %struct.dst_ops, %struct.spinlock, %struct.seqcount_spinlock, %struct.seqcount_spinlock, %struct.spinlock, %struct.mutex, [16 x i8] }
%struct.xfrm_policy_hash = type { ptr, i32, i8, i8, i8, i8 }
%struct.xfrm_policy_hthresh = type { %struct.work_struct, %struct.seqlock_t, i8, i8, i8, i8 }
%struct.netlink_kernel_cfg = type { i32, i32, ptr, ptr, ptr, ptr, ptr }

@__UNIQUE_ID___addressable_selnl_init463 = internal global ptr @selnl_init, section ".discard.addressable", align 8
@selnl = internal unnamed_addr global ptr null, section ".data..ro_after_init", align 8
@.str = private unnamed_addr constant [23 x i8] c"\013SELinux:  OOM in %s\0A\00", align 1
@__func__.selnl_notify = private unnamed_addr constant [13 x i8] c"selnl_notify\00", align 1
@init_net = external dso_local global %struct.net, align 64
@.str.2 = private unnamed_addr constant [40 x i8] c"SELinux:  Cannot create netlink socket.\00", align 1
@llvm.compiler.used = appending global [1 x ptr] [ptr @__UNIQUE_ID___addressable_selnl_init463], section "llvm.metadata"

; Function Attrs: fn_ret_thunk_extern nounwind null_pointer_is_valid
define dso_local void @selnl_notify_setenforce(i32 noundef %0) local_unnamed_addr #0 align 16 {
  %2 = alloca i32, align 4
  store i32 %0, ptr %2, align 4
  call fastcc void @selnl_notify(i32 noundef 16, ptr noundef nonnull %2)
  ret void
}

; Function Attrs: fn_ret_thunk_extern nounwind null_pointer_is_valid
define internal fastcc void @selnl_notify(i32 noundef %0, ptr nocapture noundef readonly %1) unnamed_addr #0 align 16 {
  %3 = tail call ptr @__alloc_skb(i32 noundef 20, i32 noundef 1051840, i32 noundef 0, i32 noundef -1) #7
  %4 = icmp eq ptr %3, null
  br i1 %4, label %31, label %5

5:                                                ; preds = %2
  %6 = getelementptr inbounds i8, ptr %3, i64 184
  %7 = load i32, ptr %6, align 8
  %8 = getelementptr inbounds i8, ptr %3, i64 116
  %9 = load i32, ptr %8, align 4
  %10 = icmp eq i32 %9, 0
  br i1 %10, label %11, label %18

11:                                               ; preds = %5
  %12 = getelementptr inbounds i8, ptr %3, i64 188
  %13 = load i32, ptr %12, align 4
  %14 = sub i32 %13, %7
  %15 = icmp slt i32 %14, 20
  br i1 %15, label %18, label %16, !prof !5

16:                                               ; preds = %11
  %17 = tail call ptr @__nlmsg_put(ptr noundef nonnull %3, i32 noundef 0, i32 noundef 0, i32 noundef %0, i32 noundef 4, i32 noundef 0) #7
  br label %18

18:                                               ; preds = %16, %11, %5
  %19 = phi ptr [ %17, %16 ], [ null, %11 ], [ null, %5 ]
  %20 = icmp eq ptr %19, null
  br i1 %20, label %30, label %21

21:                                               ; preds = %18
  %22 = getelementptr i8, ptr %19, i64 16
  store i32 0, ptr %22, align 4
  %23 = load i32, ptr %1, align 4
  store i32 %23, ptr %22, align 4
  %24 = load i32, ptr %6, align 8
  %25 = sub i32 %24, %7
  store i32 %25, ptr %19, align 4
  %26 = getelementptr inbounds i8, ptr %3, i64 56
  store i32 1, ptr %26, align 8
  %27 = load ptr, ptr @selnl, align 8
  %28 = tail call i32 @netlink_broadcast(ptr noundef %27, ptr noundef nonnull %3, i32 noundef 0, i32 noundef 1, i32 noundef 1051840) #7
  br label %29

29:                                               ; preds = %31, %21
  ret void

30:                                               ; preds = %18
  tail call void @kfree_skb_reason(ptr noundef nonnull %3, i32 noundef 2) #7
  br label %31

31:                                               ; preds = %30, %2
  %32 = tail call i32 (ptr, ...) @_printk(ptr noundef nonnull @.str, ptr noundef nonnull @__func__.selnl_notify) #8
  br label %29
}

; Function Attrs: fn_ret_thunk_extern nounwind null_pointer_is_valid
define dso_local void @selnl_notify_policyload(i32 noundef %0) local_unnamed_addr #0 align 16 {
  %2 = alloca i32, align 4
  store i32 %0, ptr %2, align 4
  call fastcc void @selnl_notify(i32 noundef 17, ptr noundef nonnull %2)
  ret void
}

; Function Attrs: cold fn_ret_thunk_extern nounwind null_pointer_is_valid optsize
define internal noundef i32 @selnl_init() #1 section ".init.text" align 16 {
  %1 = alloca %struct.netlink_kernel_cfg, align 8
  call void @llvm.lifetime.start.p0(i64 48, ptr nonnull %1) #7
  call void @llvm.memset.p0.i64(ptr noundef nonnull align 8 dereferenceable(48) %1, i8 0, i64 48, i1 false)
  store i32 1, ptr %1, align 8
  %2 = getelementptr inbounds i8, ptr %1, i64 4
  store i32 1, ptr %2, align 4
  %3 = call ptr @__netlink_kernel_create(ptr noundef nonnull @init_net, i32 noundef 7, ptr noundef null, ptr noundef nonnull %1) #7
  store ptr %3, ptr @selnl, align 8
  %4 = icmp eq ptr %3, null
  br i1 %4, label %5, label %6

5:                                                ; preds = %0
  call void (ptr, ...) @panic(ptr noundef nonnull @.str.2) #9
  unreachable

6:                                                ; preds = %0
  call void @llvm.lifetime.end.p0(i64 48, ptr nonnull %1) #7
  ret i32 0
}

; Function Attrs: nocallback nofree nosync nounwind willreturn memory(argmem: readwrite)
declare void @llvm.lifetime.start.p0(i64 immarg, ptr nocapture) #2

; Function Attrs: null_pointer_is_valid
declare dso_local i32 @netlink_broadcast(ptr noundef, ptr noundef, i32 noundef, i32 noundef, i32 noundef) local_unnamed_addr #3

; Function Attrs: cold null_pointer_is_valid
declare dso_local i32 @_printk(ptr noundef, ...) local_unnamed_addr #4

; Function Attrs: nocallback nofree nosync nounwind willreturn memory(argmem: readwrite)
declare void @llvm.lifetime.end.p0(i64 immarg, ptr nocapture) #2

; Function Attrs: null_pointer_is_valid
declare dso_local ptr @__alloc_skb(i32 noundef, i32 noundef, i32 noundef, i32 noundef) local_unnamed_addr #3

; Function Attrs: null_pointer_is_valid
declare dso_local ptr @__nlmsg_put(ptr noundef, i32 noundef, i32 noundef, i32 noundef, i32 noundef, i32 noundef) local_unnamed_addr #3

; Function Attrs: nocallback nofree nounwind willreturn memory(argmem: write)
declare void @llvm.memset.p0.i64(ptr nocapture writeonly, i8, i64, i1 immarg) #5

; Function Attrs: null_pointer_is_valid
declare dso_local void @kfree_skb_reason(ptr noundef, i32 noundef) local_unnamed_addr #3

; Function Attrs: cold noreturn null_pointer_is_valid
declare dso_local void @panic(ptr noundef, ...) local_unnamed_addr #6

; Function Attrs: null_pointer_is_valid
declare dso_local ptr @__netlink_kernel_create(ptr noundef, i32 noundef, ptr noundef, ptr noundef) local_unnamed_addr #3


!llvm.module.flags = !{!0, !1, !2, !3, !4}

!0 = !{i32 1, !"wchar_size", i32 2}
!1 = !{i32 8, !"cf-protection-branch", i32 1}
!2 = !{i32 4, !"function_return_thunk_extern", i32 1}
!3 = !{i32 4, !"indirect_branch_cs_prefix", i32 1}
!4 = !{i32 4, !"SkipRaxSetup", i32 1}
!5 = !{!"branch_weights", i32 1, i32 2000}
